; Function Attrs: mustprogress nounwind uwtable
define dso_local void @_ZN22btDeformableBodySolverD2Ev(ptr noundef nonnull align 8 dereferenceable(609) initializes((0, 8)) %0) unnamed_addr #11 align 2 personality ptr @__gxx_personality_v0 {
  store ptr getelementptr inbounds nuw inrange(-16, 256) (i8, ptr @_ZTV22btDeformableBodySolver, i64 16), ptr %0, align 8, !tbaa !50
  %2 = getelementptr inbounds nuw i8, ptr %0, i64 600
  %3 = load ptr, ptr %2, align 8, !tbaa !104
  %4 = icmp eq ptr %3, null
  br i1 %4, label %9, label %5

5:                                                ; preds = %1
  %6 = load ptr, ptr %3, align 8, !tbaa !50
  %7 = getelementptr inbounds nuw i8, ptr %6, i64 8
  %8 = load ptr, ptr %7, align 8
  tail call void %8(ptr noundef nonnull align 8 dereferenceable(504) %3) #27
  br label %9

9:                                                ; preds = %5, %1
  %10 = getelementptr inbounds nuw i8, ptr %0, i64 368
  tail call void @_ZN19btConjugateResidualI34btDeformableBackwardEulerObjectiveED2Ev(ptr noundef nonnull align 8 dereferenceable(212) %10) #27
  %11 = getelementptr inbounds nuw i8, ptr %0, i64 224
  tail call void @_ZN19btConjugateGradientI34btDeformableBackwardEulerObjectiveED2Ev(ptr noundef nonnull align 8 dereferenceable(144) %11) #27
  %12 = getelementptr inbounds nuw i8, ptr %0, i64 200
  %13 = load ptr, ptr %12, align 8, !tbaa !29
  %.not.i.i.i = icmp eq ptr %13, null
  br i1 %.not.i.i.i, label %_ZN20btAlignedObjectArrayI9btVector3ED2Ev.exit, label %14

14:                                               ; preds = %9
  %15 = getelementptr inbounds nuw i8, ptr %0, i64 208
  %16 = load i8, ptr %15, align 8, !tbaa !28, !range !32, !noundef !33
  %17 = trunc nuw i8 %16 to i1
  br i1 %17, label %18, label %_ZN20btAlignedObjectArrayI9btVector3ED2Ev.exit

18:                                               ; preds = %14
  invoke void @_Z21btAlignedFreeInternalPv(ptr noundef nonnull %13)
          to label %_ZN20btAlignedObjectArrayI9btVector3ED2Ev.exit unwind label %19

19:                                               ; preds = %18
  %20 = landingpad { ptr, i32 }
          catch ptr null
  %21 = extractvalue { ptr, i32 } %20, 0
  tail call void @__clang_call_terminate(ptr %21) #28
  unreachable

_ZN20btAlignedObjectArrayI9btVector3ED2Ev.exit:   ; preds = %9, %14, %18
  %22 = getelementptr inbounds nuw i8, ptr %0, i64 188
  %23 = getelementptr inbounds nuw i8, ptr %0, i64 208
  store i8 1, ptr %23, align 8, !tbaa !28
  store ptr null, ptr %12, align 8, !tbaa !29
  store i32 0, ptr %22, align 4, !tbaa !30
  %24 = getelementptr inbounds nuw i8, ptr %0, i64 192
  store i32 0, ptr %24, align 8, !tbaa !31
  %25 = getelementptr inbounds nuw i8, ptr %0, i64 168
  %26 = load ptr, ptr %25, align 8, !tbaa !95
  %.not.i.i.i1 = icmp eq ptr %26, null
  br i1 %.not.i.i.i1, label %_ZN20btAlignedObjectArrayIP10btSoftBodyED2Ev.exit, label %27

27:                                               ; preds = %_ZN20btAlignedObjectArrayI9btVector3ED2Ev.exit
  %28 = getelementptr inbounds nuw i8, ptr %0, i64 176
  %29 = load i8, ptr %28, align 8, !tbaa !94, !range !32, !noundef !33
  %30 = trunc nuw i8 %29 to i1
  br i1 %30, label %31, label %_ZN20btAlignedObjectArrayIP10btSoftBodyED2Ev.exit

31:                                               ; preds = %27
  invoke void @_Z21btAlignedFreeInternalPv(ptr noundef nonnull %26)
          to label %_ZN20btAlignedObjectArrayIP10btSoftBodyED2Ev.exit unwind label %32

32:                                               ; preds = %31
  %33 = landingpad { ptr, i32 }
          catch ptr null
  %34 = extractvalue { ptr, i32 } %33, 0
  tail call void @__clang_call_terminate(ptr %34) #28
  unreachable

_ZN20btAlignedObjectArrayIP10btSoftBodyED2Ev.exit: ; preds = %_ZN20btAlignedObjectArrayI9btVector3ED2Ev.exit, %27, %31
  %35 = getelementptr inbounds nuw i8, ptr %0, i64 156
  %36 = getelementptr inbounds nuw i8, ptr %0, i64 176
  store i8 1, ptr %36, align 8, !tbaa !94
  store ptr null, ptr %25, align 8, !tbaa !95
  store i32 0, ptr %35, align 4, !tbaa !96
  %37 = getelementptr inbounds nuw i8, ptr %0, i64 160
  store i32 0, ptr %37, align 8, !tbaa !97
  %38 = getelementptr inbounds nuw i8, ptr %0, i64 136
  %39 = load ptr, ptr %38, align 8, !tbaa !29
  %.not.i.i.i2 = icmp eq ptr %39, null
  br i1 %.not.i.i.i2, label %_ZN20btAlignedObjectArrayI9btVector3ED2Ev.exit3, label %40

40:                                               ; preds = %_ZN20btAlignedObjectArrayIP10btSoftBodyED2Ev.exit
  %41 = getelementptr inbounds nuw i8, ptr %0, i64 144
  %42 = load i8, ptr %41, align 8, !tbaa !28, !range !32, !noundef !33
  %43 = trunc nuw i8 %42 to i1
  br i1 %43, label %44, label %_ZN20btAlignedObjectArrayI9btVector3ED2Ev.exit3

44:                                               ; preds = %40
  invoke void @_Z21btAlignedFreeInternalPv(ptr noundef nonnull %39)
          to label %_ZN20btAlignedObjectArrayI9btVector3ED2Ev.exit3 unwind label %45

45:                                               ; preds = %44
  %46 = landingpad { ptr, i32 }
          catch ptr null
  %47 = extractvalue { ptr, i32 } %46, 0
  tail call void @__clang_call_terminate(ptr %47) #28
  unreachable

_ZN20btAlignedObjectArrayI9btVector3ED2Ev.exit3:  ; preds = %_ZN20btAlignedObjectArrayIP10btSoftBodyED2Ev.exit, %40, %44
  %48 = getelementptr inbounds nuw i8, ptr %0, i64 124
  %49 = getelementptr inbounds nuw i8, ptr %0, i64 144
  store i8 1, ptr %49, align 8, !tbaa !28
  store ptr null, ptr %38, align 8, !tbaa !29
  store i32 0, ptr %48, align 4, !tbaa !30
  %50 = getelementptr inbounds nuw i8, ptr %0, i64 128
  store i32 0, ptr %50, align 8, !tbaa !31
  %51 = getelementptr inbounds nuw i8, ptr %0, i64 104
  %52 = load ptr, ptr %51, align 8, !tbaa !29
  %.not.i.i.i4 = icmp eq ptr %52, null
  br i1 %.not.i.i.i4, label %_ZN20btAlignedObjectArrayI9btVector3ED2Ev.exit5, label %53

53:                                               ; preds = %_ZN20btAlignedObjectArrayI9btVector3ED2Ev.exit3
  %54 = getelementptr inbounds nuw i8, ptr %0, i64 112
  %55 = load i8, ptr %54, align 8, !tbaa !28, !range !32, !noundef !33
  %56 = trunc nuw i8 %55 to i1
  br i1 %56, label %57, label %_ZN20btAlignedObjectArrayI9btVector3ED2Ev.exit5

57:                                               ; preds = %53
  invoke void @_Z21btAlignedFreeInternalPv(ptr noundef nonnull %52)
          to label %_ZN20btAlignedObjectArrayI9btVector3ED2Ev.exit5 unwind label %58

58:                                               ; preds = %57
  %59 = landingpad { ptr, i32 }
          catch ptr null
  %60 = extractvalue { ptr, i32 } %59, 0
  tail call void @__clang_call_terminate(ptr %60) #28
  unreachable

_ZN20btAlignedObjectArrayI9btVector3ED2Ev.exit5:  ; preds = %_ZN20btAlignedObjectArrayI9btVector3ED2Ev.exit3, %53, %57
  %61 = getelementptr inbounds nuw i8, ptr %0, i64 92
  %62 = getelementptr inbounds nuw i8, ptr %0, i64 112
  store i8 1, ptr %62, align 8, !tbaa !28
  store ptr null, ptr %51, align 8, !tbaa !29
  store i32 0, ptr %61, align 4, !tbaa !30
  %63 = getelementptr inbounds nuw i8, ptr %0, i64 96
  store i32 0, ptr %63, align 8, !tbaa !31
  %64 = getelementptr inbounds nuw i8, ptr %0, i64 72
  %65 = load ptr, ptr %64, align 8, !tbaa !29
  %.not.i.i.i6 = icmp eq ptr %65, null
  br i1 %.not.i.i.i6, label %_ZN20btAlignedObjectArrayI9btVector3ED2Ev.exit7, label %66

66:                                               ; preds = %_ZN20btAlignedObjectArrayI9btVector3ED2Ev.exit5
  %67 = getelementptr inbounds nuw i8, ptr %0, i64 80
  %68 = load i8, ptr %67, align 8, !tbaa !28, !range !32, !noundef !33
  %69 = trunc nuw i8 %68 to i1
  br i1 %69, label %70, label %_ZN20btAlignedObjectArrayI9btVector3ED2Ev.exit7

70:                                               ; preds = %66
  invoke void @_Z21btAlignedFreeInternalPv(ptr noundef nonnull %65)
          to label %_ZN20btAlignedObjectArrayI9btVector3ED2Ev.exit7 unwind label %71

71:                                               ; preds = %70
  %72 = landingpad { ptr, i32 }
          catch ptr null
  %73 = extractvalue { ptr, i32 } %72, 0
  tail call void @__clang_call_terminate(ptr %73) #28
  unreachable

_ZN20btAlignedObjectArrayI9btVector3ED2Ev.exit7:  ; preds = %_ZN20btAlignedObjectArrayI9btVector3ED2Ev.exit5, %66, %70
  %74 = getelementptr inbounds nuw i8, ptr %0, i64 60
  %75 = getelementptr inbounds nuw i8, ptr %0, i64 80
  store i8 1, ptr %75, align 8, !tbaa !28
  store ptr null, ptr %64, align 8, !tbaa !29
  store i32 0, ptr %74, align 4, !tbaa !30
  %76 = getelementptr inbounds nuw i8, ptr %0, i64 64
  store i32 0, ptr %76, align 8, !tbaa !31
  %77 = getelementptr inbounds nuw i8, ptr %0, i64 40
  %78 = load ptr, ptr %77, align 8, !tbaa !29
  %.not.i.i.i8 = icmp eq ptr %78, null
  br i1 %.not.i.i.i8, label %_ZN20btAlignedObjectArrayI9btVector3ED2Ev.exit9, label %79

79:                                               ; preds = %_ZN20btAlignedObjectArrayI9btVector3ED2Ev.exit7
  %80 = getelementptr inbounds nuw i8, ptr %0, i64 48
  %81 = load i8, ptr %80, align 8, !tbaa !28, !range !32, !noundef !33
  %82 = trunc nuw i8 %81 to i1
  br i1 %82, label %83, label %_ZN20btAlignedObjectArrayI9btVector3ED2Ev.exit9

83:                                               ; preds = %79
  invoke void @_Z21btAlignedFreeInternalPv(ptr noundef nonnull %78)
          to label %_ZN20btAlignedObjectArrayI9btVector3ED2Ev.exit9 unwind label %84

84:                                               ; preds = %83
  %85 = landingpad { ptr, i32 }
          catch ptr null
  %86 = extractvalue { ptr, i32 } %85, 0
  tail call void @__clang_call_terminate(ptr %86) #28
  unreachable

_ZN20btAlignedObjectArrayI9btVector3ED2Ev.exit9:  ; preds = %_ZN20btAlignedObjectArrayI9btVector3ED2Ev.exit7, %79, %83
  %87 = getelementptr inbounds nuw i8, ptr %0, i64 28
  %88 = getelementptr inbounds nuw i8, ptr %0, i64 48
  store i8 1, ptr %88, align 8, !tbaa !28
  store ptr null, ptr %77, align 8, !tbaa !29
  store i32 0, ptr %87, align 4, !tbaa !30
  %89 = getelementptr inbounds nuw i8, ptr %0, i64 32
  store i32 0, ptr %89, align 8, !tbaa !31
  ret void
}